; ModuleID = 'source-C-CXX/25/320.cpp'
source_filename = "source-C-CXX/25/320.cpp"
target datalayout = "e-m:e-p270:32:32-p271:32:32-p272:64:64-i64:64-f80:128-n8:16:32:64-S128"
target triple = "x86_64-pc-linux-gnu"

%"class.std::ios_base::Init" = type { i8 }
%"class.std::basic_istream" = type { i32 (...)**, i64, %"class.std::basic_ios" }
%"class.std::basic_ios" = type { %"class.std::ios_base", %"class.std::basic_ostream"*, i8, i8, %"class.std::basic_streambuf"*, %"class.std::ctype"*, %"class.std::num_put"*, %"class.std::num_get"* }
%"class.std::ios_base" = type { i32 (...)**, i64, i64, i32, i32, i32, %"struct.std::ios_base::_Callback_list"*, %"struct.std::ios_base::_Words", [8 x %"struct.std::ios_base::_Words"], i32, %"struct.std::ios_base::_Words"*, %"class.std::locale" }
%"struct.std::ios_base::_Callback_list" = type { %"struct.std::ios_base::_Callback_list"*, void (i32, %"class.std::ios_base"*, i32)*, i32, i32 }
%"struct.std::ios_base::_Words" = type { i8*, i64 }
%"class.std::locale" = type { %"class.std::locale::_Impl"* }
%"class.std::locale::_Impl" = type { i32, %"class.std::locale::facet"**, i64, %"class.std::locale::facet"**, i8** }
%"class.std::locale::facet" = type <{ i32 (...)**, i32, [4 x i8] }>
%"class.std::basic_ostream" = type { i32 (...)**, %"class.std::basic_ios" }
%"class.std::basic_streambuf" = type { i32 (...)**, i8*, i8*, i8*, i8*, i8*, i8*, %"class.std::locale" }
%"class.std::ctype" = type <{ %"class.std::locale::facet.base", [4 x i8], %struct.__locale_struct*, i8, [7 x i8], i32*, i32*, i16*, i8, [256 x i8], [256 x i8], i8, [6 x i8] }>
%"class.std::locale::facet.base" = type <{ i32 (...)**, i32 }>
%struct.__locale_struct = type { [13 x %struct.__locale_data*], i16*, i32*, i32*, [13 x i8*] }
%struct.__locale_data = type opaque
%"class.std::num_put" = type { %"class.std::locale::facet.base", [4 x i8] }
%"class.std::num_get" = type { %"class.std::locale::facet.base", [4 x i8] }

@_ZStL8__ioinit = internal global %"class.std::ios_base::Init" zeroinitializer, align 1
@__dso_handle = external hidden global i8
@str = dso_local global [100 x i8] zeroinitializer, align 16
@_ZSt3cin = external global %"class.std::basic_istream", align 8
@_ZSt4cout = external global %"class.std::basic_ostream", align 8
@llvm.global_ctors = appending global [1 x { i32, void ()*, i8* }] [{ i32, void ()*, i8* } { i32 65535, void ()* @_GLOBAL__sub_I_320.cpp, i8* null }]

declare void @_ZNSt8ios_base4InitC1Ev(%"class.std::ios_base::Init"* nonnull align 1 dereferenceable(1)) unnamed_addr #0

; Function Attrs: nounwind
declare void @_ZNSt8ios_base4InitD1Ev(%"class.std::ios_base::Init"* nonnull align 1 dereferenceable(1)) unnamed_addr #1

; Function Attrs: nofree nounwind
declare i32 @__cxa_atexit(void (i8*)*, i8*, i8*) local_unnamed_addr #2

; Function Attrs: mustprogress norecurse sspstrong uwtable
define dso_local i32 @main() local_unnamed_addr #3 {
  %1 = load i8*, i8** bitcast (%"class.std::basic_istream"* @_ZSt3cin to i8**), align 8, !tbaa !5
  %2 = getelementptr i8, i8* %1, i64 -24
  %3 = bitcast i8* %2 to i64*
  %4 = load i64, i64* %3, align 8
  %5 = add nsw i64 %4, 240
  %6 = getelementptr inbounds i8, i8* bitcast (%"class.std::basic_istream"* @_ZSt3cin to i8*), i64 %5
  %7 = bitcast i8* %6 to %"class.std::ctype"**
  %8 = load %"class.std::ctype"*, %"class.std::ctype"** %7, align 8, !tbaa !8
  %9 = icmp eq %"class.std::ctype"* %8, null
  br i1 %9, label %10, label %11

10:                                               ; preds = %0
  tail call void @_ZSt16__throw_bad_castv() #8
  unreachable

11:                                               ; preds = %0
  %12 = getelementptr inbounds %"class.std::ctype", %"class.std::ctype"* %8, i64 0, i32 8
  %13 = load i8, i8* %12, align 8, !tbaa !13
  %14 = icmp eq i8 %13, 0
  br i1 %14, label %18, label %15

15:                                               ; preds = %11
  %16 = getelementptr inbounds %"class.std::ctype", %"class.std::ctype"* %8, i64 0, i32 9, i64 10
  %17 = load i8, i8* %16, align 1, !tbaa !15
  br label %24

18:                                               ; preds = %11
  tail call void @_ZNKSt5ctypeIcE13_M_widen_initEv(%"class.std::ctype"* nonnull align 8 dereferenceable(570) %8)
  %19 = bitcast %"class.std::ctype"* %8 to i8 (%"class.std::ctype"*, i8)***
  %20 = load i8 (%"class.std::ctype"*, i8)**, i8 (%"class.std::ctype"*, i8)*** %19, align 8, !tbaa !5
  %21 = getelementptr inbounds i8 (%"class.std::ctype"*, i8)*, i8 (%"class.std::ctype"*, i8)** %20, i64 6
  %22 = load i8 (%"class.std::ctype"*, i8)*, i8 (%"class.std::ctype"*, i8)** %21, align 8
  %23 = tail call signext i8 %22(%"class.std::ctype"* nonnull align 8 dereferenceable(570) %8, i8 signext 10)
  br label %24

24:                                               ; preds = %15, %18
  %25 = phi i8 [ %17, %15 ], [ %23, %18 ]
  %26 = tail call nonnull align 8 dereferenceable(16) %"class.std::basic_istream"* @_ZNSi7getlineEPclc(%"class.std::basic_istream"* nonnull align 8 dereferenceable(16) @_ZSt3cin, i8* getelementptr inbounds ([100 x i8], [100 x i8]* @str, i64 0, i64 0), i64 100, i8 signext %25)
  tail call void @_Z11space_clearPc(i8* getelementptr inbounds ([100 x i8], [100 x i8]* @str, i64 0, i64 0))
  ret i32 0
}

; Function Attrs: mustprogress sspstrong uwtable
define dso_local void @_Z11space_clearPc(i8* nocapture %0) local_unnamed_addr #4 {
  br label %2

2:                                                ; preds = %7, %1
  %3 = phi i8* [ %0, %1 ], [ %8, %7 ]
  %4 = load i8, i8* %3, align 1, !tbaa !15
  switch i8 %4, label %5 [
    i8 0, label %9
    i8 32, label %39
  ]

5:                                                ; preds = %2
  %6 = getelementptr inbounds i8, i8* %3, i64 1
  br label %7

7:                                                ; preds = %5, %55
  %8 = phi i8* [ %6, %5 ], [ %45, %55 ]
  br label %2, !llvm.loop !16

9:                                                ; preds = %2
  %10 = tail call i64 @strlen(i8* noundef nonnull dereferenceable(1) getelementptr inbounds ([100 x i8], [100 x i8]* @str, i64 0, i64 0)) #9
  %11 = tail call nonnull align 8 dereferenceable(8) %"class.std::basic_ostream"* @_ZSt16__ostream_insertIcSt11char_traitsIcEERSt13basic_ostreamIT_T0_ES6_PKS3_l(%"class.std::basic_ostream"* nonnull align 8 dereferenceable(8) @_ZSt4cout, i8* nonnull getelementptr inbounds ([100 x i8], [100 x i8]* @str, i64 0, i64 0), i64 %10)
  %12 = load i8*, i8** bitcast (%"class.std::basic_ostream"* @_ZSt4cout to i8**), align 8, !tbaa !5
  %13 = getelementptr i8, i8* %12, i64 -24
  %14 = bitcast i8* %13 to i64*
  %15 = load i64, i64* %14, align 8
  %16 = add nsw i64 %15, 240
  %17 = getelementptr inbounds i8, i8* bitcast (%"class.std::basic_ostream"* @_ZSt4cout to i8*), i64 %16
  %18 = bitcast i8* %17 to %"class.std::ctype"**
  %19 = load %"class.std::ctype"*, %"class.std::ctype"** %18, align 8, !tbaa !8
  %20 = icmp eq %"class.std::ctype"* %19, null
  br i1 %20, label %21, label %22

21:                                               ; preds = %9
  tail call void @_ZSt16__throw_bad_castv() #8
  unreachable

22:                                               ; preds = %9
  %23 = getelementptr inbounds %"class.std::ctype", %"class.std::ctype"* %19, i64 0, i32 8
  %24 = load i8, i8* %23, align 8, !tbaa !13
  %25 = icmp eq i8 %24, 0
  br i1 %25, label %29, label %26

26:                                               ; preds = %22
  %27 = getelementptr inbounds %"class.std::ctype", %"class.std::ctype"* %19, i64 0, i32 9, i64 10
  %28 = load i8, i8* %27, align 1, !tbaa !15
  br label %35

29:                                               ; preds = %22
  tail call void @_ZNKSt5ctypeIcE13_M_widen_initEv(%"class.std::ctype"* nonnull align 8 dereferenceable(570) %19)
  %30 = bitcast %"class.std::ctype"* %19 to i8 (%"class.std::ctype"*, i8)***
  %31 = load i8 (%"class.std::ctype"*, i8)**, i8 (%"class.std::ctype"*, i8)*** %30, align 8, !tbaa !5
  %32 = getelementptr inbounds i8 (%"class.std::ctype"*, i8)*, i8 (%"class.std::ctype"*, i8)** %31, i64 6
  %33 = load i8 (%"class.std::ctype"*, i8)*, i8 (%"class.std::ctype"*, i8)** %32, align 8
  %34 = tail call signext i8 %33(%"class.std::ctype"* nonnull align 8 dereferenceable(570) %19, i8 signext 10)
  br label %35

35:                                               ; preds = %26, %29
  %36 = phi i8 [ %28, %26 ], [ %34, %29 ]
  %37 = tail call nonnull align 8 dereferenceable(8) %"class.std::basic_ostream"* @_ZNSo3putEc(%"class.std::basic_ostream"* nonnull align 8 dereferenceable(8) @_ZSt4cout, i8 signext %36)
  %38 = tail call nonnull align 8 dereferenceable(8) %"class.std::basic_ostream"* @_ZNSo5flushEv(%"class.std::basic_ostream"* nonnull align 8 dereferenceable(8) %37)
  ret void

39:                                               ; preds = %2, %39
  %40 = phi i8* [ %41, %39 ], [ %3, %2 ]
  %41 = getelementptr inbounds i8, i8* %40, i64 1
  %42 = load i8, i8* %41, align 1, !tbaa !15
  %43 = icmp eq i8 %42, 32
  br i1 %43, label %39, label %44, !llvm.loop !18

44:                                               ; preds = %39
  %45 = getelementptr inbounds i8, i8* %3, i64 1
  %46 = icmp eq i8 %42, 0
  br i1 %46, label %55, label %47

47:                                               ; preds = %44, %47
  %48 = phi i8* [ %52, %47 ], [ %45, %44 ]
  %49 = phi i8* [ %51, %47 ], [ %41, %44 ]
  %50 = phi i8 [ %53, %47 ], [ %42, %44 ]
  %51 = getelementptr inbounds i8, i8* %49, i64 1
  %52 = getelementptr inbounds i8, i8* %48, i64 1
  store i8 %50, i8* %48, align 1, !tbaa !15
  %53 = load i8, i8* %51, align 1, !tbaa !15
  %54 = icmp eq i8 %53, 0
  br i1 %54, label %55, label %47, !llvm.loop !19

55:                                               ; preds = %47, %44
  %56 = phi i8* [ %45, %44 ], [ %52, %47 ]
  store i8 0, i8* %56, align 1, !tbaa !15
  br label %7
}

declare nonnull align 8 dereferenceable(16) %"class.std::basic_istream"* @_ZNSi7getlineEPclc(%"class.std::basic_istream"* nonnull align 8 dereferenceable(16), i8*, i64, i8 signext) local_unnamed_addr #0

; Function Attrs: noreturn
declare void @_ZSt16__throw_bad_castv() local_unnamed_addr #5

declare void @_ZNKSt5ctypeIcE13_M_widen_initEv(%"class.std::ctype"* nonnull align 8 dereferenceable(570)) local_unnamed_addr #0

declare nonnull align 8 dereferenceable(8) %"class.std::basic_ostream"* @_ZSt16__ostream_insertIcSt11char_traitsIcEERSt13basic_ostreamIT_T0_ES6_PKS3_l(%"class.std::basic_ostream"* nonnull align 8 dereferenceable(8), i8*, i64) local_unnamed_addr #0

; Function Attrs: argmemonly mustprogress nofree nounwind readonly willreturn
declare i64 @strlen(i8* nocapture) local_unnamed_addr #6

declare nonnull align 8 dereferenceable(8) %"class.std::basic_ostream"* @_ZNSo3putEc(%"class.std::basic_ostream"* nonnull align 8 dereferenceable(8), i8 signext) local_unnamed_addr #0

declare nonnull align 8 dereferenceable(8) %"class.std::basic_ostream"* @_ZNSo5flushEv(%"class.std::basic_ostream"* nonnull align 8 dereferenceable(8)) local_unnamed_addr #0

; Function Attrs: sspstrong uwtable
define internal void @_GLOBAL__sub_I_320.cpp() #7 section ".text.startup" {
  tail call void @_ZNSt8ios_base4InitC1Ev(%"class.std::ios_base::Init"* nonnull align 1 dereferenceable(1) @_ZStL8__ioinit)
  %1 = tail call i32 @__cxa_atexit(void (i8*)* bitcast (void (%"class.std::ios_base::Init"*)* @_ZNSt8ios_base4InitD1Ev to void (i8*)*), i8* getelementptr inbounds (%"class.std::ios_base::Init", %"class.std::ios_base::Init"* @_ZStL8__ioinit, i64 0, i32 0), i8* nonnull @__dso_handle) #9
  ret void
}


!llvm.module.flags = !{!0, !1, !2, !3}
!llvm.ident = !{!4}

!0 = !{i32 1, !"wchar_size", i32 4}
!1 = !{i32 7, !"PIC Level", i32 2}
!2 = !{i32 7, !"PIE Level", i32 2}
!3 = !{i32 7, !"uwtable", i32 1}
!4 = !{!"clang version 13.0.0"}
!5 = !{!6, !6, i64 0}
!6 = !{!"vtable pointer", !7, i64 0}
!7 = !{!"Simple C++ TBAA"}
!8 = !{!9, !10, i64 240}
!9 = !{!"_ZTSSt9basic_iosIcSt11char_traitsIcEE", !10, i64 216, !11, i64 224, !12, i64 225, !10, i64 232, !10, i64 240, !10, i64 248, !10, i64 256}
!10 = !{!"any pointer", !11, i64 0}
!11 = !{!"omnipotent char", !7, i64 0}
!12 = !{!"bool", !11, i64 0}
!13 = !{!14, !11, i64 56}
!14 = !{!"_ZTSSt5ctypeIcE", !10, i64 16, !12, i64 24, !10, i64 32, !10, i64 40, !10, i64 48, !11, i64 56, !11, i64 57, !11, i64 313, !11, i64 569}
!15 = !{!11, !11, i64 0}
!16 = distinct !{!16, !17}
!17 = !{!"llvm.loop.mustprogress"}
!18 = distinct !{!18, !17}
!19 = distinct !{!19, !17}
